target datalayout = "e-m:e-p270:32:32-p271:32:32-p272:64:64-i64:64-i128:128-f80:128-n8:16:32:64-S128"
target triple = "x86_64-pc-linux-gnu"

@.str.9 = private unnamed_addr constant [9 x i8] c"%2d/%2d \00", align 1
@.str.10 = private unnamed_addr constant [2 x i8] c"\0A\00", align 1

; Function Attrs: nounwind uwtable
define void @Aig_RManPrintVarProfile(ptr noundef %0, i32 noundef %1, ptr noundef %2) #0 {
  %4 = alloca ptr, align 8
  %5 = alloca i32, align 4
  %6 = alloca ptr, align 8
  %7 = alloca [32 x i32], align 16
  %8 = alloca i32, align 4
  store ptr %0, ptr %4, align 8, !tbaa !29
  store i32 %1, ptr %5, align 4, !tbaa !25
  store ptr %2, ptr %6, align 8, !tbaa !29
  call void @llvm.lifetime.start.p0(i64 128, ptr %7) #10
  call void @llvm.lifetime.start.p0(i64 4, ptr %8) #10
  %9 = load ptr, ptr %4, align 8, !tbaa !29
  %10 = load i32, ptr %5, align 4, !tbaa !25
  %11 = getelementptr inbounds [32 x i32], ptr %7, i64 0, i64 0
  %12 = load ptr, ptr %6, align 8, !tbaa !29
  call void @Kit_TruthCountOnesInCofsSlow(ptr noundef %9, i32 noundef %10, ptr noundef %11, ptr noundef %12)
  store i32 0, ptr %8, align 4, !tbaa !25
  br label %13

13:                                               ; preds = %30, %3
  %14 = load i32, ptr %8, align 4, !tbaa !25
  %15 = load i32, ptr %5, align 4, !tbaa !25
  %16 = icmp slt i32 %14, %15
  br i1 %16, label %17, label %33

17:                                               ; preds = %13
  %18 = load i32, ptr %8, align 4, !tbaa !25
  %19 = mul nsw i32 2, %18
  %20 = sext i32 %19 to i64
  %21 = getelementptr inbounds [32 x i32], ptr %7, i64 0, i64 %20
  %22 = load i32, ptr %21, align 4, !tbaa !25
  %23 = load i32, ptr %8, align 4, !tbaa !25
  %24 = mul nsw i32 2, %23
  %25 = add nsw i32 %24, 1
  %26 = sext i32 %25 to i64
  %27 = getelementptr inbounds [32 x i32], ptr %7, i64 0, i64 %26
  %28 = load i32, ptr %27, align 4, !tbaa !25
  %29 = call i32 (ptr, ...) @printf(ptr noundef @.str.9, i32 noundef %22, i32 noundef %28)
  br label %30

30:                                               ; preds = %17
  %31 = load i32, ptr %8, align 4, !tbaa !25
  %32 = add nsw i32 %31, 1
  store i32 %32, ptr %8, align 4, !tbaa !25
  br label %13, !llvm.loop !51

33:                                               ; preds = %13
  %34 = call i32 (ptr, ...) @printf(ptr noundef @.str.10)
  call void @llvm.lifetime.end.p0(i64 4, ptr %8) #10
  call void @llvm.lifetime.end.p0(i64 128, ptr %7) #10
  ret void
}