; Function Attrs: nounwind uwtable
define void @Aig_RManPrintVarProfile(ptr noundef %0, i32 noundef %1, ptr noundef %2) local_unnamed_addr #0 {
  %4 = alloca [32 x i32], align 16
  call void @llvm.lifetime.start.p0(i64 128, ptr nonnull %4) #16
  call void @Kit_TruthCountOnesInCofsSlow(ptr noundef %0, i32 noundef %1, ptr noundef nonnull %4, ptr noundef %2) #16
  %5 = icmp sgt i32 %1, 0
  br i1 %5, label %.lr.ph.preheader, label %._crit_edge

.lr.ph.preheader:                                 ; preds = %3
  %wide.trip.count = zext nneg i32 %1 to i64
  br label %.lr.ph

.lr.ph:                                           ; preds = %.lr.ph.preheader, %.lr.ph
  %indvars.iv = phi i64 [ 0, %.lr.ph.preheader ], [ %indvars.iv.next, %.lr.ph ]
  %6 = shl nuw nsw i64 %indvars.iv, 1
  %7 = getelementptr inbounds nuw [32 x i32], ptr %4, i64 0, i64 %6
  %8 = load i32, ptr %7, align 8, !tbaa !24
  %9 = or disjoint i64 %6, 1
  %10 = getelementptr inbounds nuw [32 x i32], ptr %4, i64 0, i64 %9
  %11 = load i32, ptr %10, align 4, !tbaa !24
  %12 = call i32 (ptr, ...) @printf(ptr noundef nonnull dereferenceable(1) @.str.9, i32 noundef %8, i32 noundef %11)
  %indvars.iv.next = add nuw nsw i64 %indvars.iv, 1
  %exitcond.not = icmp eq i64 %indvars.iv.next, %wide.trip.count
  br i1 %exitcond.not, label %._crit_edge, label %.lr.ph, !llvm.loop !44

._crit_edge:                                      ; preds = %.lr.ph, %3
  %putchar = call i32 @putchar(i32 10)
  call void @llvm.lifetime.end.p0(i64 128, ptr nonnull %4) #16
  ret void
}